target datalayout = "e-m:e-p270:32:32-p271:32:32-p272:64:64-i64:64-i128:128-f80:128-n8:16:32:64-S128"
target triple = "x86_64-pc-linux-gnu"

%struct._GArray = type { ptr, i32 }
%struct.open_info = type { ptr, i32, ptr, ptr, ptr, ptr }

@open_info_arr = internal global ptr null, align 8
@open_routines = global ptr null, align 8

; Function Attrs: nounwind null_pointer_is_valid sspstrong uwtable
define i32 @open_info_name_to_type(ptr noundef %0) #2 {
  %2 = alloca i32, align 4
  %3 = alloca ptr, align 8
  %4 = alloca i32, align 4
  %5 = alloca i32, align 4
  store ptr %0, ptr %3, align 8
  call void @llvm.lifetime.start.p0(i64 4, ptr %4) #12
  %6 = load ptr, ptr %3, align 8
  %7 = icmp ne ptr %6, null
  br i1 %7, label %9, label %8

8:                                                ; preds = %1
  store i32 0, ptr %2, align 4
  store i32 1, ptr %5, align 4
  br label %42

9:                                                ; preds = %1
  store i32 0, ptr %4, align 4
  br label %10

10:                                               ; preds = %38, %9
  %11 = load i32, ptr %4, align 4
  %12 = load ptr, ptr @open_info_arr, align 8
  %13 = getelementptr inbounds nuw %struct._GArray, ptr %12, i32 0, i32 1
  %14 = load i32, ptr %13, align 8
  %15 = icmp ult i32 %11, %14
  br i1 %15, label %16, label %41

16:                                               ; preds = %10
  %17 = load ptr, ptr @open_routines, align 8
  %18 = load i32, ptr %4, align 4
  %19 = zext i32 %18 to i64
  %20 = getelementptr %struct.open_info, ptr %17, i64 %19
  %21 = getelementptr inbounds nuw %struct.open_info, ptr %20, i32 0, i32 0
  %22 = load ptr, ptr %21, align 8
  %23 = icmp ne ptr %22, null
  br i1 %23, label %24, label %37

24:                                               ; preds = %16
  %25 = load ptr, ptr %3, align 8
  %26 = load ptr, ptr @open_routines, align 8
  %27 = load i32, ptr %4, align 4
  %28 = zext i32 %27 to i64
  %29 = getelementptr %struct.open_info, ptr %26, i64 %28
  %30 = getelementptr inbounds nuw %struct.open_info, ptr %29, i32 0, i32 0
  %31 = load ptr, ptr %30, align 8
  %32 = call i32 @strcmp(ptr noundef %25, ptr noundef %31) #14
  %33 = icmp eq i32 %32, 0
  br i1 %33, label %34, label %37

34:                                               ; preds = %24
  %35 = load i32, ptr %4, align 4
  %36 = add i32 %35, 1
  store i32 %36, ptr %2, align 4
  store i32 1, ptr %5, align 4
  br label %42

37:                                               ; preds = %24, %16
  br label %38

38:                                               ; preds = %37
  %39 = load i32, ptr %4, align 4
  %40 = add i32 %39, 1
  store i32 %40, ptr %4, align 4
  br label %10, !llvm.loop !14

41:                                               ; preds = %10
  store i32 0, ptr %2, align 4
  store i32 1, ptr %5, align 4
  br label %42

42:                                               ; preds = %41, %34, %8
  call void @llvm.lifetime.end.p0(i64 4, ptr %4) #12
  %43 = load i32, ptr %2, align 4
  ret i32 %43
}