; Function Attrs: nofree nounwind null_pointer_is_valid sspstrong memory(read, inaccessiblemem: none) uwtable
define i32 @open_info_name_to_type(ptr noundef readonly captures(address_is_null) %0) local_unnamed_addr #7 {
  %.not = icmp eq ptr %0, null
  br i1 %.not, label %.loopexit, label %.preheader

.preheader:                                       ; preds = %1
  %2 = load ptr, ptr @open_info_arr, align 8
  %3 = getelementptr inbounds nuw i8, ptr %2, i64 8
  %4 = load i32, ptr %3, align 8
  %.not13 = icmp eq i32 %4, 0
  br i1 %.not13, label %.loopexit, label %.lr.ph

.lr.ph:                                           ; preds = %.preheader
  %5 = load ptr, ptr @open_routines, align 8
  %wide.trip.count = zext i32 %4 to i64
  br label %6

6:                                                ; preds = %.lr.ph, %15
  %indvars.iv = phi i64 [ 0, %.lr.ph ], [ %indvars.iv.next, %15 ]
  %7 = getelementptr %struct.open_info, ptr %5, i64 %indvars.iv
  %8 = load ptr, ptr %7, align 8
  %.not10 = icmp eq ptr %8, null
  br i1 %.not10, label %15, label %9

9:                                                ; preds = %6
  %10 = tail call i32 @strcmp(ptr noundef nonnull dereferenceable(1) %0, ptr noundef nonnull dereferenceable(1) %8) #23
  %11 = icmp eq i32 %10, 0
  br i1 %11, label %12, label %15

12:                                               ; preds = %9
  %13 = trunc nuw i64 %indvars.iv to i32
  %14 = add nuw i32 %13, 1
  br label %.loopexit

15:                                               ; preds = %6, %9
  %indvars.iv.next = add nuw nsw i64 %indvars.iv, 1
  %exitcond.not = icmp eq i64 %indvars.iv.next, %wide.trip.count
  br i1 %exitcond.not, label %.loopexit, label %6, !llvm.loop !13

.loopexit:                                        ; preds = %15, %.preheader, %1, %12
  %.07 = phi i32 [ %14, %12 ], [ 0, %1 ], [ 0, %.preheader ], [ 0, %15 ]
  ret i32 %.07
}